; Function Attrs: nounwind uwtable
define dso_local void @freeClientAsync(ptr noundef %0) local_unnamed_addr #0 {
  %2 = getelementptr inbounds nuw i8, ptr %0, i64 25
  %3 = load i8, ptr %2, align 1, !tbaa !73
  %.not = icmp eq i8 %3, 0
  br i1 %.not, label %24, label %4

4:                                                ; preds = %1
  %5 = tail call i64 @pthread_self() #29
  %6 = load i64, ptr getelementptr inbounds nuw (i8, ptr @server, i64 8), align 8, !tbaa !117
  %.not18 = icmp eq i64 %5, %6
  br i1 %.not18, label %7, label %11

7:                                                ; preds = %4
  %8 = getelementptr inbounds nuw i8, ptr %0, i64 24
  %9 = load i8, ptr %8, align 8, !tbaa !72
  %10 = zext i8 %9 to i32
  tail call void @pauseIOThread(i32 noundef %10) #26
  br label %11

11:                                               ; preds = %7, %4
  %12 = getelementptr inbounds nuw i8, ptr %0, i64 8
  %13 = load i64, ptr %12, align 8, !tbaa !86
  %14 = and i64 %13, 16
  %.not17 = icmp eq i64 %14, 0
  br i1 %.not17, label %15, label %19

15:                                               ; preds = %11
  %16 = getelementptr inbounds nuw i8, ptr %0, i64 26
  %17 = load i8, ptr %16, align 2, !tbaa !87
  %18 = or i8 %17, 16
  store i8 %18, ptr %16, align 2, !tbaa !87
  tail call void @enqueuePendingClientsToMainThread(ptr noundef nonnull %0, i32 noundef 1) #26
  br label %19

19:                                               ; preds = %15, %11
  br i1 %.not18, label %20, label %35

20:                                               ; preds = %19
  %21 = getelementptr inbounds nuw i8, ptr %0, i64 24
  %22 = load i8, ptr %21, align 8, !tbaa !72
  %23 = zext i8 %22 to i32
  tail call void @resumeIOThread(i32 noundef %23) #26
  br label %35

24:                                               ; preds = %1
  %25 = getelementptr inbounds nuw i8, ptr %0, i64 8
  %26 = load i64, ptr %25, align 8, !tbaa !86
  %27 = and i64 %26, 1280
  %or.cond = icmp eq i64 %27, 0
  br i1 %or.cond, label %28, label %35

28:                                               ; preds = %24
  %29 = or disjoint i64 %26, 1024
  store i64 %29, ptr %25, align 8, !tbaa !86
  %30 = and i64 %26, 1
  %.not15 = icmp eq i64 %30, 0
  br i1 %.not15, label %32, label %31

31:                                               ; preds = %28
  tail call void @freeReplicaReferencedReplBuffer(ptr noundef nonnull %0) #26
  br label %32

32:                                               ; preds = %31, %28
  %33 = load ptr, ptr getelementptr inbounds nuw (i8, ptr @server, i64 1440), align 8, !tbaa !118
  %34 = tail call ptr @listAddNodeTail(ptr noundef %33, ptr noundef nonnull %0) #26
  br label %35

35:                                               ; preds = %19, %20, %24, %32
  ret void
}